target datalayout = "e-m:e-p270:32:32-p271:32:32-p272:64:64-i64:64-i128:128-f80:128-n8:16:32:64-S128"
target triple = "x86_64-pc-linux-gnu"

%struct.FAKE_RAND = type { ptr, i32, ptr, ptr }

@.str = private unnamed_addr constant [39 x i8] c"../openssl/test/testutil/fake_random.c\00", align 1

; Function Attrs: nounwind uwtable
define internal ptr @fake_rand_newctx(ptr noundef %0, ptr noundef %1, ptr noundef %2) #0 {
  %4 = alloca ptr, align 8
  %5 = alloca ptr, align 8
  %6 = alloca ptr, align 8
  %7 = alloca ptr, align 8
  store ptr %0, ptr %4, align 8, !tbaa !16
  store ptr %1, ptr %5, align 8, !tbaa !16
  store ptr %2, ptr %6, align 8, !tbaa !12
  call void @llvm.lifetime.start.p0(i64 8, ptr %7) #4
  %8 = call noalias ptr @CRYPTO_zalloc(i64 noundef 32, ptr noundef @.str, i32 noundef 38)
  store ptr %8, ptr %7, align 8, !tbaa !16
  %9 = load ptr, ptr %7, align 8, !tbaa !16
  %10 = icmp ne ptr %9, null
  br i1 %10, label %11, label %14

11:                                               ; preds = %3
  %12 = load ptr, ptr %7, align 8, !tbaa !16
  %13 = getelementptr inbounds nuw %struct.FAKE_RAND, ptr %12, i32 0, i32 1
  store i32 0, ptr %13, align 8, !tbaa !33
  br label %14

14:                                               ; preds = %11, %3
  %15 = load ptr, ptr %7, align 8, !tbaa !16
  call void @llvm.lifetime.end.p0(i64 8, ptr %7) #4
  ret ptr %15
}