; Function Attrs: nounwind uwtable
define internal noalias ptr @fake_rand_newctx(ptr readnone captures(none) %0, ptr readnone captures(none) %1, ptr readnone captures(none) %2) #0 {
  %4 = tail call noalias ptr @CRYPTO_zalloc(i64 noundef 32, ptr noundef nonnull @.str, i32 noundef 38) #8
  %.not = icmp eq ptr %4, null
  br i1 %.not, label %7, label %5

5:                                                ; preds = %3
  %6 = getelementptr inbounds nuw i8, ptr %4, i64 8
  store i32 0, ptr %6, align 8, !tbaa !21
  br label %7

7:                                                ; preds = %5, %3
  ret ptr %4
}